target datalayout = "e-m:e-p270:32:32-p271:32:32-p272:64:64-i64:64-i128:128-f80:128-n8:16:32:64-S128"
target triple = "x86_64-pc-linux-gnu"

%struct.buf_mem_st = type { i64, ptr, i64, i64 }

@.str.2 = private unnamed_addr constant [40 x i8] c"Failed to print x509 certificate name!\0A\00", align 1
@.str.3 = private unnamed_addr constant [66 x i8] c"Failed to allocate memory for certificate name biomem structure!\0A\00", align 1

; Function Attrs: nounwind uwtable
define i32 @x509_get_cert_name(ptr noundef %0, ptr noundef %1) #0 {
  %3 = alloca ptr, align 8
  %4 = alloca ptr, align 8
  %5 = alloca i32, align 4
  %6 = alloca ptr, align 8
  %7 = alloca ptr, align 8
  %8 = alloca ptr, align 8
  %9 = alloca ptr, align 8
  store ptr %0, ptr %3, align 8
  store ptr %1, ptr %4, align 8
  store i32 20, ptr %5, align 4
  store ptr null, ptr %6, align 8
  store ptr null, ptr %7, align 8
  store ptr null, ptr %9, align 8
  %10 = load ptr, ptr %3, align 8
  %11 = icmp eq ptr null, %10
  br i1 %11, label %15, label %12

12:                                               ; preds = %2
  %13 = load ptr, ptr %4, align 8
  %14 = icmp eq ptr null, %13
  br i1 %14, label %15, label %16

15:                                               ; preds = %12, %2
  store i32 3, ptr %5, align 4
  br label %57

16:                                               ; preds = %12
  %17 = load ptr, ptr %4, align 8
  store ptr null, ptr %17, align 8
  %18 = call ptr @BIO_s_mem()
  %19 = call ptr @BIO_new(ptr noundef %18)
  store ptr %19, ptr %7, align 8
  %20 = load ptr, ptr %7, align 8
  %21 = icmp ne ptr %20, null
  br i1 %21, label %23, label %22

22:                                               ; preds = %16
  br label %57

23:                                               ; preds = %16
  %24 = load ptr, ptr %3, align 8
  %25 = call ptr @X509_get_subject_name(ptr noundef %24)
  store ptr %25, ptr %6, align 8
  %26 = load ptr, ptr %7, align 8
  %27 = load ptr, ptr %6, align 8
  %28 = call i32 @X509_NAME_print_ex(ptr noundef %26, ptr noundef %27, i32 noundef 0, i64 noundef 196608)
  %29 = icmp eq i32 -1, %28
  br i1 %29, label %30, label %31

30:                                               ; preds = %23
  call void (i32, ptr, ...) @mprintf(i32 noundef 5, ptr noundef @.str.2)
  br label %57

31:                                               ; preds = %23
  %32 = load ptr, ptr %7, align 8
  %33 = call i64 @BIO_ctrl(ptr noundef %32, i32 noundef 115, i64 noundef 0, ptr noundef %8)
  %34 = load ptr, ptr %8, align 8
  %35 = getelementptr inbounds %struct.buf_mem_st, ptr %34, i32 0, i32 0
  %36 = load i64, ptr %35, align 8
  %37 = add i64 %36, 1
  %38 = call noalias ptr @malloc(i64 noundef %37) #12
  store ptr %38, ptr %9, align 8
  %39 = load ptr, ptr %9, align 8
  %40 = icmp ne ptr %39, null
  br i1 %40, label %42, label %41

41:                                               ; preds = %31
  call void (i32, ptr, ...) @mprintf(i32 noundef 5, ptr noundef @.str.3)
  br label %57

42:                                               ; preds = %31
  %43 = load ptr, ptr %9, align 8
  %44 = load ptr, ptr %8, align 8
  %45 = getelementptr inbounds %struct.buf_mem_st, ptr %44, i32 0, i32 1
  %46 = load ptr, ptr %45, align 8
  %47 = load ptr, ptr %8, align 8
  %48 = getelementptr inbounds %struct.buf_mem_st, ptr %47, i32 0, i32 0
  %49 = load i64, ptr %48, align 8
  call void @llvm.memcpy.p0.p0.i64(ptr align 1 %43, ptr align 1 %46, i64 %49, i1 false)
  %50 = load ptr, ptr %9, align 8
  %51 = load ptr, ptr %8, align 8
  %52 = getelementptr inbounds %struct.buf_mem_st, ptr %51, i32 0, i32 0
  %53 = load i64, ptr %52, align 8
  %54 = getelementptr inbounds i8, ptr %50, i64 %53
  store i8 0, ptr %54, align 1
  %55 = load ptr, ptr %9, align 8
  %56 = load ptr, ptr %4, align 8
  store ptr %55, ptr %56, align 8
  store i32 0, ptr %5, align 4
  br label %57

57:                                               ; preds = %42, %41, %30, %22, %15
  %58 = load ptr, ptr %7, align 8
  %59 = icmp ne ptr null, %58
  br i1 %59, label %60, label %63

60:                                               ; preds = %57
  %61 = load ptr, ptr %7, align 8
  %62 = call i32 @BIO_free(ptr noundef %61)
  br label %63

63:                                               ; preds = %60, %57
  %64 = load i32, ptr %5, align 4
  ret i32 %64
}