; Function Attrs: nounwind uwtable
define noundef i32 @x509_get_cert_name(ptr noundef %0, ptr noundef writeonly %1) local_unnamed_addr #1 {
  %3 = alloca ptr, align 8
  %4 = icmp eq ptr %0, null
  %5 = icmp eq ptr %1, null
  %or.cond = or i1 %4, %5
  br i1 %or.cond, label %27, label %6

6:                                                ; preds = %2
  store ptr null, ptr %1, align 8
  %7 = tail call ptr @BIO_s_mem() #15
  %8 = tail call ptr @BIO_new(ptr noundef %7) #15
  %.not = icmp eq ptr %8, null
  br i1 %.not, label %27, label %9

9:                                                ; preds = %6
  %10 = tail call ptr @X509_get_subject_name(ptr noundef nonnull %0) #15
  %11 = tail call i32 @X509_NAME_print_ex(ptr noundef nonnull %8, ptr noundef %10, i32 noundef 0, i64 noundef 196608) #15
  %12 = icmp eq i32 %11, -1
  br i1 %12, label %13, label %14

13:                                               ; preds = %9
  tail call void (i32, ptr, ...) @mprintf(i32 noundef 5, ptr noundef nonnull @.str.2) #15
  br label %25

14:                                               ; preds = %9
  %15 = call i64 @BIO_ctrl(ptr noundef nonnull %8, i32 noundef 115, i64 noundef 0, ptr noundef nonnull %3) #15
  %16 = load ptr, ptr %3, align 8
  %17 = load i64, ptr %16, align 8
  %18 = add i64 %17, 1
  %19 = call noalias ptr @malloc(i64 noundef %18) #17
  %.not21 = icmp eq ptr %19, null
  br i1 %.not21, label %20, label %21

20:                                               ; preds = %14
  call void (i32, ptr, ...) @mprintf(i32 noundef 5, ptr noundef nonnull @.str.3) #15
  br label %25

21:                                               ; preds = %14
  %22 = getelementptr inbounds i8, ptr %16, i64 8
  %23 = load ptr, ptr %22, align 8
  call void @llvm.memcpy.p0.p0.i64(ptr nonnull align 1 %19, ptr align 1 %23, i64 %17, i1 false)
  %24 = getelementptr inbounds i8, ptr %19, i64 %17
  store i8 0, ptr %24, align 1
  store ptr %19, ptr %1, align 8
  br label %25

25:                                               ; preds = %13, %21, %20
  %.016.ph = phi i32 [ 20, %20 ], [ 0, %21 ], [ 20, %13 ]
  %26 = call i32 @BIO_free(ptr noundef nonnull %8) #15
  br label %27

27:                                               ; preds = %6, %2, %25
  %.01627 = phi i32 [ %.016.ph, %25 ], [ 20, %6 ], [ 3, %2 ]
  ret i32 %.01627
}